; Function Attrs: mustprogress nofree norecurse nosync nounwind willreturn memory(argmem: readwrite) uwtable
define void @_ZN20TlsServerCredentialsC2EN9grpc_core13RefCountedPtrI28grpc_tls_credentials_optionsEE(ptr nocapture noundef nonnull writeonly align 8 dereferenceable(48) %this, ptr nocapture noundef %options) unnamed_addr #3 align 2 personality ptr @__gxx_personality_v0 {
entry:
  %refs_.i.i = getelementptr inbounds i8, ptr %this, i64 8
  store i64 1, ptr %refs_.i.i, align 8
  %processor_.i = getelementptr inbounds i8, ptr %this, i64 16
  tail call void @llvm.memset.p0.i64(ptr noundef nonnull align 8 dereferenceable(24) %processor_.i, i8 0, i64 24, i1 false)
  store ptr getelementptr inbounds ({ [6 x ptr] }, ptr @_ZTV20TlsServerCredentials, i64 0, i32 0, i64 2), ptr %this, align 8
  %options_ = getelementptr inbounds i8, ptr %this, i64 40
  store ptr null, ptr %options_, align 8
  %0 = load ptr, ptr %options, align 8
  store ptr %0, ptr %options_, align 8
  store ptr null, ptr %options, align 8
  ret void
}